; Function Attrs: nounwind sspstrong uwtable
define dso_local range(i32 0, 2) i32 @onig_is_code_in_cc(ptr noundef %0, i32 noundef %1, ptr noundef readonly captures(none) %2) local_unnamed_addr #4 {
  %4 = getelementptr inbounds nuw i8, ptr %0, i64 20
  %5 = load i32, ptr %4, align 4, !tbaa !160
  %6 = icmp sgt i32 %5, 1
  br i1 %6, label %.thread, label %7

7:                                                ; preds = %3
  %8 = getelementptr inbounds nuw i8, ptr %0, i64 40
  %9 = load ptr, ptr %8, align 8, !tbaa !224
  %10 = tail call i32 %9(i32 noundef %1, ptr noundef nonnull %0) #20
  %11 = icmp sgt i32 %10, 1
  %12 = icmp ugt i32 %1, 255
  %or.cond.i = or i1 %12, %11
  br i1 %or.cond.i, label %.thread, label %37

.thread:                                          ; preds = %3, %7
  %13 = getelementptr inbounds nuw i8, ptr %2, i64 40
  %14 = load ptr, ptr %13, align 8, !tbaa !192
  %15 = icmp eq ptr %14, null
  br i1 %15, label %onig_is_code_in_cc_len.exit, label %16

16:                                               ; preds = %.thread
  %17 = load ptr, ptr %14, align 8, !tbaa !11
  %18 = load i32, ptr %17, align 4, !tbaa !7
  %19 = getelementptr i8, ptr %17, i64 4
  %.not.i.i = icmp eq i32 %18, 0
  br i1 %.not.i.i, label %._crit_edge.i.i, label %.lr.ph.i.i

.lr.ph.i.i:                                       ; preds = %16, %.lr.ph.i.i
  %.020.i.i = phi i32 [ %.1.i.i, %.lr.ph.i.i ], [ %18, %16 ]
  %.01719.i.i = phi i32 [ %.118.i.i, %.lr.ph.i.i ], [ 0, %16 ]
  %20 = add i32 %.01719.i.i, %.020.i.i
  %21 = lshr i32 %20, 1
  %22 = or i32 %20, 1
  %23 = zext i32 %22 to i64
  %24 = getelementptr i32, ptr %19, i64 %23
  %25 = load i32, ptr %24, align 4, !tbaa !7
  %26 = icmp ugt i32 %1, %25
  %27 = add nuw i32 %21, 1
  %.118.i.i = select i1 %26, i32 %27, i32 %.01719.i.i
  %.1.i.i = select i1 %26, i32 %.020.i.i, i32 %21
  %28 = icmp ult i32 %.118.i.i, %.1.i.i
  br i1 %28, label %.lr.ph.i.i, label %._crit_edge.i.i, !llvm.loop !223

._crit_edge.i.i:                                  ; preds = %.lr.ph.i.i, %16
  %.017.lcssa.i.i = phi i32 [ 0, %16 ], [ %.118.i.i, %.lr.ph.i.i ]
  %29 = icmp ult i32 %.017.lcssa.i.i, %18
  br i1 %29, label %30, label %onig_is_code_in_cc_len.exit

30:                                               ; preds = %._crit_edge.i.i
  %31 = shl i32 %.017.lcssa.i.i, 1
  %32 = zext i32 %31 to i64
  %33 = getelementptr i32, ptr %19, i64 %32
  %34 = load i32, ptr %33, align 4, !tbaa !7
  %35 = icmp uge i32 %1, %34
  %36 = zext i1 %35 to i32
  br label %onig_is_code_in_cc_len.exit

37:                                               ; preds = %7
  %38 = getelementptr inbounds nuw i8, ptr %2, i64 8
  %39 = lshr i32 %1, 5
  %40 = zext nneg i32 %39 to i64
  %41 = getelementptr [8 x i32], ptr %38, i64 0, i64 %40
  %42 = load i32, ptr %41, align 4, !tbaa !7
  %43 = and i32 %1, 31
  %44 = lshr i32 %42, %43
  %45 = and i32 %44, 1
  br label %onig_is_code_in_cc_len.exit

onig_is_code_in_cc_len.exit:                      ; preds = %.thread, %._crit_edge.i.i, %30, %37
  %.0.i = phi i32 [ %45, %37 ], [ 0, %.thread ], [ 0, %._crit_edge.i.i ], [ %36, %30 ]
  %46 = getelementptr inbounds nuw i8, ptr %2, i64 4
  %47 = load i32, ptr %46, align 4, !tbaa !195
  %48 = and i32 %47, 1
  %.012.i = xor i32 %48, %.0.i
  ret i32 %.012.i
}